; Function Attrs: nounwind uwtable
define i32 @If_ManNodeShapeMap_rec(ptr noundef %0, ptr noundef %1, ptr noundef %2, ptr noundef %3) local_unnamed_addr #0 {
  %5 = getelementptr inbounds nuw i8, ptr %1, i64 80
  %.val34 = load i32, ptr %5, align 4, !tbaa !3
  %.not = icmp eq i32 %.val34, 0
  br i1 %.not, label %6, label %.loopexit

6:                                                ; preds = %4
  %7 = getelementptr inbounds nuw i8, ptr %2, i64 4
  %8 = load i32, ptr %7, align 4, !tbaa !7
  %9 = load i32, ptr %2, align 8, !tbaa !10
  %10 = icmp eq i32 %8, %9
  br i1 %10, label %11, label %.Vec_PtrGrow.exit11_crit_edge.i

.Vec_PtrGrow.exit11_crit_edge.i:                  ; preds = %6
  %.phi.trans.insert.i = getelementptr inbounds nuw i8, ptr %2, i64 8
  %.pre.i = load ptr, ptr %.phi.trans.insert.i, align 8, !tbaa !11
  br label %Vec_PtrPush.exit

11:                                               ; preds = %6
  %12 = icmp slt i32 %8, 16
  br i1 %12, label %13, label %21

13:                                               ; preds = %11
  %14 = getelementptr inbounds nuw i8, ptr %2, i64 8
  %15 = load ptr, ptr %14, align 8, !tbaa !11
  %.not9.i.i = icmp eq ptr %15, null
  br i1 %.not9.i.i, label %18, label %16

16:                                               ; preds = %13
  %17 = tail call dereferenceable_or_null(128) ptr @realloc(ptr noundef nonnull %15, i64 noundef 128) #13
  br label %Vec_PtrGrow.exit.i

18:                                               ; preds = %13
  %19 = tail call noalias dereferenceable_or_null(128) ptr @malloc(i64 noundef 128) #14
  br label %Vec_PtrGrow.exit.i

Vec_PtrGrow.exit.i:                               ; preds = %18, %16
  %20 = phi ptr [ %17, %16 ], [ %19, %18 ]
  store ptr %20, ptr %14, align 8, !tbaa !11
  store i32 16, ptr %2, align 8, !tbaa !10
  br label %Vec_PtrPush.exit

21:                                               ; preds = %11
  %22 = shl nuw nsw i32 %8, 1
  %23 = getelementptr inbounds nuw i8, ptr %2, i64 8
  %24 = load ptr, ptr %23, align 8, !tbaa !11
  %.not9.i10.i = icmp eq ptr %24, null
  %25 = zext nneg i32 %22 to i64
  %26 = shl nuw nsw i64 %25, 3
  br i1 %.not9.i10.i, label %29, label %27

27:                                               ; preds = %21
  %28 = tail call ptr @realloc(ptr noundef nonnull %24, i64 noundef %26) #13
  br label %31

29:                                               ; preds = %21
  %30 = tail call noalias ptr @malloc(i64 noundef %26) #14
  br label %31

31:                                               ; preds = %29, %27
  %32 = phi ptr [ %28, %27 ], [ %30, %29 ]
  store ptr %32, ptr %23, align 8, !tbaa !11
  store i32 %22, ptr %2, align 8, !tbaa !10
  br label %Vec_PtrPush.exit

Vec_PtrPush.exit:                                 ; preds = %.Vec_PtrGrow.exit11_crit_edge.i, %Vec_PtrGrow.exit.i, %31
  %33 = phi ptr [ %.pre.i, %.Vec_PtrGrow.exit11_crit_edge.i ], [ %32, %31 ], [ %20, %Vec_PtrGrow.exit.i ]
  %34 = load i32, ptr %7, align 4, !tbaa !7
  %35 = add nsw i32 %34, 1
  store i32 %35, ptr %7, align 4, !tbaa !7
  %36 = sext i32 %34 to i64
  %37 = getelementptr inbounds ptr, ptr %33, i64 %36
  store ptr %5, ptr %37, align 8, !tbaa !12
  store i32 -1, ptr %5, align 4, !tbaa !3
  %.val35 = load i32, ptr %1, align 8
  %38 = and i32 %.val35, 15
  %.not46 = icmp eq i32 %38, 2
  br i1 %.not46, label %.loopexit, label %.preheader

.preheader:                                       ; preds = %Vec_PtrPush.exit, %102
  %.02848 = phi ptr [ %104, %102 ], [ %1, %Vec_PtrPush.exit ]
  %39 = getelementptr inbounds nuw i8, ptr %.02848, i64 24
  %40 = load ptr, ptr %39, align 8, !tbaa !19
  %41 = tail call i32 @If_ManNodeShapeMap_rec(ptr noundef %0, ptr noundef %40, ptr noundef nonnull %2, ptr noundef %3)
  %42 = icmp eq i32 %41, -1
  br i1 %42, label %102, label %43

43:                                               ; preds = %.preheader
  %44 = getelementptr inbounds nuw i8, ptr %.02848, i64 32
  %45 = load ptr, ptr %44, align 8, !tbaa !20
  %46 = tail call i32 @If_ManNodeShapeMap_rec(ptr noundef %0, ptr noundef %45, ptr noundef nonnull %2, ptr noundef %3)
  %47 = icmp eq i32 %46, -1
  br i1 %47, label %102, label %48

48:                                               ; preds = %43
  %49 = getelementptr inbounds nuw i8, ptr %1, i64 4
  %50 = load i32, ptr %49, align 4, !tbaa !21
  %51 = getelementptr inbounds nuw i8, ptr %3, i64 4
  %52 = load i32, ptr %51, align 4, !tbaa !40
  %53 = load i32, ptr %3, align 8, !tbaa !43
  %54 = icmp eq i32 %52, %53
  br i1 %54, label %55, label %.Vec_IntGrow.exit10_crit_edge.i

.Vec_IntGrow.exit10_crit_edge.i:                  ; preds = %48
  %.phi.trans.insert.i36 = getelementptr inbounds nuw i8, ptr %3, i64 8
  %.pre.i37 = load ptr, ptr %.phi.trans.insert.i36, align 8, !tbaa !44
  br label %Vec_IntPush.exit

55:                                               ; preds = %48
  %56 = icmp slt i32 %52, 16
  br i1 %56, label %57, label %65

57:                                               ; preds = %55
  %58 = getelementptr inbounds nuw i8, ptr %3, i64 8
  %59 = load ptr, ptr %58, align 8, !tbaa !44
  %.not9.i.i38 = icmp eq ptr %59, null
  br i1 %.not9.i.i38, label %62, label %60

60:                                               ; preds = %57
  %61 = tail call dereferenceable_or_null(64) ptr @realloc(ptr noundef nonnull %59, i64 noundef 64) #13
  br label %Vec_IntGrow.exit.i

62:                                               ; preds = %57
  %63 = tail call noalias dereferenceable_or_null(64) ptr @malloc(i64 noundef 64) #14
  br label %Vec_IntGrow.exit.i

Vec_IntGrow.exit.i:                               ; preds = %62, %60
  %64 = phi ptr [ %61, %60 ], [ %63, %62 ]
  store ptr %64, ptr %58, align 8, !tbaa !44
  store i32 16, ptr %3, align 8, !tbaa !43
  br label %Vec_IntPush.exit

65:                                               ; preds = %55
  %66 = shl nuw nsw i32 %52, 1
  %67 = getelementptr inbounds nuw i8, ptr %3, i64 8
  %68 = load ptr, ptr %67, align 8, !tbaa !44
  %.not9.i9.i = icmp eq ptr %68, null
  %69 = zext nneg i32 %66 to i64
  %70 = shl nuw nsw i64 %69, 2
  br i1 %.not9.i9.i, label %73, label %71

71:                                               ; preds = %65
  %72 = tail call ptr @realloc(ptr noundef nonnull %68, i64 noundef %70) #13
  br label %75

73:                                               ; preds = %65
  %74 = tail call noalias ptr @malloc(i64 noundef %70) #14
  br label %75

75:                                               ; preds = %73, %71
  %76 = phi ptr [ %72, %71 ], [ %74, %73 ]
  store ptr %76, ptr %67, align 8, !tbaa !44
  store i32 %66, ptr %3, align 8, !tbaa !43
  br label %Vec_IntPush.exit

Vec_IntPush.exit:                                 ; preds = %.Vec_IntGrow.exit10_crit_edge.i, %Vec_IntGrow.exit.i, %75
  %77 = phi ptr [ %.pre.i37, %.Vec_IntGrow.exit10_crit_edge.i ], [ %76, %75 ], [ %64, %Vec_IntGrow.exit.i ]
  %78 = load i32, ptr %51, align 4, !tbaa !40
  %79 = add nsw i32 %78, 1
  store i32 %79, ptr %51, align 4, !tbaa !40
  %80 = sext i32 %78 to i64
  %81 = getelementptr inbounds i32, ptr %77, i64 %80
  store i32 %50, ptr %81, align 4, !tbaa !3
  %82 = getelementptr inbounds nuw i8, ptr %.02848, i64 4
  %83 = load i32, ptr %82, align 4, !tbaa !21
  %84 = load i32, ptr %51, align 4, !tbaa !40
  %85 = load i32, ptr %3, align 8, !tbaa !43
  %86 = icmp eq i32 %84, %85
  br i1 %86, label %87, label %Vec_IntPush.exit45

87:                                               ; preds = %Vec_IntPush.exit
  %88 = icmp slt i32 %84, 16
  br i1 %88, label %Vec_IntGrow.exit.i44, label %91

Vec_IntGrow.exit.i44:                             ; preds = %87
  %89 = getelementptr inbounds nuw i8, ptr %3, i64 8
  %90 = tail call dereferenceable_or_null(64) ptr @realloc(ptr noundef nonnull %77, i64 noundef 64) #13
  store ptr %90, ptr %89, align 8, !tbaa !44
  br label %Vec_IntPush.exit45.sink.split

91:                                               ; preds = %87
  %92 = shl nuw nsw i32 %84, 1
  %93 = getelementptr inbounds nuw i8, ptr %3, i64 8
  %94 = zext nneg i32 %92 to i64
  %95 = shl nuw nsw i64 %94, 2
  %96 = tail call ptr @realloc(ptr noundef nonnull %77, i64 noundef %95) #13
  store ptr %96, ptr %93, align 8, !tbaa !44
  br label %Vec_IntPush.exit45.sink.split

Vec_IntPush.exit45.sink.split:                    ; preds = %91, %Vec_IntGrow.exit.i44
  %.sink = phi i32 [ 16, %Vec_IntGrow.exit.i44 ], [ %92, %91 ]
  %.ph = phi ptr [ %90, %Vec_IntGrow.exit.i44 ], [ %96, %91 ]
  store i32 %.sink, ptr %3, align 8, !tbaa !43
  br label %Vec_IntPush.exit45

Vec_IntPush.exit45:                               ; preds = %Vec_IntPush.exit45.sink.split, %Vec_IntPush.exit
  %97 = phi ptr [ %77, %Vec_IntPush.exit ], [ %.ph, %Vec_IntPush.exit45.sink.split ]
  %98 = load i32, ptr %51, align 4, !tbaa !40
  %99 = add nsw i32 %98, 1
  store i32 %99, ptr %51, align 4, !tbaa !40
  %100 = sext i32 %98 to i64
  %101 = getelementptr inbounds i32, ptr %97, i64 %100
  store i32 %83, ptr %101, align 4, !tbaa !3
  store i32 1, ptr %5, align 4, !tbaa !3
  br label %.loopexit

102:                                              ; preds = %43, %.preheader
  %103 = getelementptr inbounds nuw i8, ptr %.02848, i64 40
  %104 = load ptr, ptr %103, align 8, !tbaa !13
  %.not31 = icmp eq ptr %104, null
  br i1 %.not31, label %.loopexit.loopexit, label %.preheader, !llvm.loop !45

.loopexit.loopexit:                               ; preds = %102
  %.val.pre = load i32, ptr %5, align 4, !tbaa !3
  br label %.loopexit

.loopexit:                                        ; preds = %Vec_IntPush.exit45, %.loopexit.loopexit, %Vec_PtrPush.exit, %4
  %.0 = phi i32 [ %.val34, %4 ], [ -1, %Vec_PtrPush.exit ], [ %.val.pre, %.loopexit.loopexit ], [ 1, %Vec_IntPush.exit45 ]
  ret i32 %.0
}